target datalayout = "e-m:e-p270:32:32-p271:32:32-p272:64:64-i64:64-i128:128-f80:128-n8:16:32:64-S128"
target triple = "x86_64-pc-linux-gnu"

%struct.KDF_ARGON2 = type { ptr, i32, ptr, i32, ptr, i32, ptr, i32, ptr, i32, i32, i32, i32, i32, i32, i32, i32, ptr, i32, i32, i32, i32, ptr, ptr, ptr, ptr }

@.str = private unnamed_addr constant [51 x i8] c"../openssl/providers/implementations/kdfs/argon2.c\00", align 1
@.str.10 = private unnamed_addr constant [8 x i8] c"min: %u\00", align 1
@__func__.kdf_argon2_ctx_set_m_cost = private unnamed_addr constant [26 x i8] c"kdf_argon2_ctx_set_m_cost\00", align 1

; Function Attrs: nounwind uwtable
define internal i32 @kdf_argon2_ctx_set_m_cost(ptr noundef %0, i32 noundef %1) #0 {
  %3 = alloca i32, align 4
  %4 = alloca ptr, align 8
  %5 = alloca i32, align 4
  store ptr %0, ptr %4, align 8, !tbaa !3
  store i32 %1, ptr %5, align 4, !tbaa !26
  %6 = load i32, ptr %5, align 4, !tbaa !26
  %7 = icmp ult i32 %6, 8
  br i1 %7, label %8, label %9

8:                                                ; preds = %2
  call void @ERR_new()
  call void @ERR_set_debug(ptr noundef @.str, i32 noundef 1205, ptr noundef @__func__.kdf_argon2_ctx_set_m_cost)
  call void (i32, i32, ptr, ...) @ERR_set_error(i32 noundef 57, i32 noundef 235, ptr noundef @.str.10, i32 noundef 8)
  store i32 0, ptr %3, align 4
  br label %13

9:                                                ; preds = %2
  %10 = load i32, ptr %5, align 4, !tbaa !26
  %11 = load ptr, ptr %4, align 8, !tbaa !3
  %12 = getelementptr inbounds nuw %struct.KDF_ARGON2, ptr %11, i32 0, i32 11
  store i32 %10, ptr %12, align 8, !tbaa !36
  store i32 1, ptr %3, align 4
  br label %13

13:                                               ; preds = %9, %8
  %14 = load i32, ptr %3, align 4
  ret i32 %14
}